Certificate:
    Data:
        Version: 3 (0x2)
        Serial Number: 1 (0x1)
    Signature Algorithm: sha256WithRSAEncryption
        Issuer: C=CN, ST=fujian, L=xiamen, O=miguan, OU=ops, CN=registry.miguan.com
        Validity
            Not Before: Jun  6 06:29:17 2016 GMT
            Not After : Jun  6 06:29:17 2017 GMT
        Subject: C=CN, ST=fujian, O=miguan, OU=ops, CN=registry.miguan.com/emailAddress=546391242@qq.com
        Subject Public Key Info:
            Public Key Algorithm: rsaEncryption
                Public-Key: (2048 bit)
                Modulus:
                    00:d7:74:98:73:5f:02:8a:8b:22:f2:fb:da:bf:7e:
                    27:b4:a3:45:4e:e0:9a:72:81:91:cc:ca:a6:59:4a:
                    05:08:8b:d0:23:2a:3f:14:2c:49:96:13:eb:d9:11:
                    b4:76:cb:30:68:2a:92:fd:f8:6d:10:1a:f6:fa:a2:
                    8d:dc:77:b6:08:39:aa:15:6d:f6:ea:e0:bb:f9:fd:
                    e8:c9:14:2b:ea:e7:f2:82:aa:82:11:04:ba:4f:2c:
                    40:e1:7f:d3:d4:b8:49:0e:25:ef:97:b5:cf:f2:13:
                    ea:b9:22:f9:26:3f:41:d0:56:8f:ab:3c:d5:ae:31:
                    ed:da:bd:07:dd:db:eb:5c:b6:51:49:fc:f2:41:38:
                    fc:06:4a:24:f7:43:bc:f2:3f:45:23:3c:62:ef:f4:
                    c1:81:1a:ff:a9:96:29:20:9c:64:58:c5:c8:8b:b6:
                    5f:61:9c:99:e0:d3:cb:45:d6:5b:c7:01:f7:29:4b:
                    db:46:b7:6b:38:3d:b6:4d:95:b4:03:45:82:b9:d1:
                    eb:15:98:3d:37:44:b7:fa:77:f8:ce:77:57:41:d4:
                    ff:a1:09:b7:c0:1c:bd:f8:90:6a:22:3b:f9:60:32:
                    ee:57:f5:b0:62:ef:55:96:8f:8d:10:36:37:ae:53:
                    11:fb:b5:13:13:10:dc:97:2e:3a:7f:35:bd:e6:52:
                    41:79
                Exponent: 65537 (0x10001)
        X509v3 extensions:
            X509v3 Basic Constraints: 
                CA:FALSE
            Netscape Comment: 
                OpenSSL Generated Certificate
            X509v3 Subject Key Identifier: 
                A9:4F:8B:BE:E9:75:24:2C:17:CC:54:16:3A:57:5F:54:B0:0C:88:77
            X509v3 Authority Key Identifier: 
                keyid:94:BE:60:A6:F7:40:49:98:BF:B8:D2:09:AC:1F:8D:04:42:CF:88:1A

    Signature Algorithm: sha256WithRSAEncryption
         d3:ac:07:85:69:f9:22:52:31:ea:e0:38:2d:23:2e:4d:3e:e3:
         7e:7a:52:81:e4:ef:8b:0d:3a:58:a0:44:7a:d6:d9:be:18:27:
         75:8e:76:d2:6d:2d:17:07:6b:3e:60:da:20:f5:45:0d:3d:9d:
         64:af:10:18:c3:94:00:ee:e2:b9:9b:27:ba:a4:7b:93:74:6c:
         73:49:19:67:76:1e:bd:c5:ff:93:cc:df:cf:62:4f:b4:76:a6:
         9c:8e:a1:9a:f5:75:76:0a:55:93:d6:8d:87:d6:ff:94:ea:4f:
         65:fa:d9:52:35:ca:50:28:fd:dd:ee:74:6e:7c:77:ff:be:43:
         62:fb:08:60:80:da:30:7b:e2:c6:02:5c:24:fe:02:ee:66:52:
         54:86:9c:ac:d3:c7:7d:f3:07:85:e3:ec:ae:2a:0c:fe:84:25:
         13:e9:28:fc:1f:b1:35:4b:4d:4d:00:9f:2a:d2:58:90:31:98:
         b4:55:78:b5:0d:02:55:36:de:90:89:8c:57:97:83:90:a1:57:
         df:24:79:9b:72:60:f3:69:d6:4a:ef:4d:da:00:d9:81:56:c3:
         d2:05:54:bc:12:a9:d2:fc:9a:8b:13:8b:8d:74:11:ab:a9:e2:
         37:1c:32:1e:d1:dc:cb:23:1a:b6:b2:d6:f2:38:72:05:3a:51:
         d9:9f:e2:7a
-----BEGIN CERTIFICATE-----
MIID3jCCAsagAwIBAgIBATANBgkqhkiG9w0BAQsFADBsMQswCQYDVQQGEwJDTjEP
MA0GA1UECAwGZnVqaWFuMQ8wDQYDVQQHDAZ4aWFtZW4xDzANBgNVBAoMBm1pZ3Vh
bjEMMAoGA1UECwwDb3BzMRwwGgYDVQQDDBNyZWdpc3RyeS5taWd1YW4uY29tMB4X
DTE2MDYwNjA2MjkxN1oXDTE3MDYwNjA2MjkxN1owfDELMAkGA1UEBhMCQ04xDzAN
BgNVBAgMBmZ1amlhbjEPMA0GA1UECgwGbWlndWFuMQwwCgYDVQQLDANvcHMxHDAa
BgNVBAMME3JlZ2lzdHJ5Lm1pZ3Vhbi5jb20xHzAdBgkqhkiG9w0BCQEWEDU0NjM5
MTI0MkBxcS5jb20wggEiMA0GCSqGSIb3DQEBAQUAA4IBDwAwggEKAoIBAQDXdJhz
XwKKiyLy+9q/fie0o0VO4JpygZHMyqZZSgUIi9AjKj8ULEmWE+vZEbR2yzBoKpL9
+G0QGvb6oo3cd7YIOaoVbfbq4Lv5/ejJFCvq5/KCqoIRBLpPLEDhf9PUuEkOJe+X
tc/yE+q5IvkmP0HQVo+rPNWuMe3avQfd2+tctlFJ/PJBOPwGSiT3Q7zyP0UjPGLv
9MGBGv+plikgnGRYxciLtl9hnJng08tF1lvHAfcpS9tGt2s4PbZNlbQDRYK50esV
mD03RLf6d/jOd1dB1P+hCbfAHL34kGoiO/lgMu5X9bBi71WWj40QNjeuUxH7tRMT
ENyXLjp/Nb3mUkF5AgMBAAGjezB5MAkGA1UdEwQCMAAwLAYJYIZIAYb4QgENBB8W
HU9wZW5TU0wgR2VuZXJhdGVkIENlcnRpZmljYXRlMB0GA1UdDgQWBBSpT4u+6XUk
LBfMVBY6V19UsAyIdzAfBgNVHSMEGDAWgBSUvmCm90BJmL+40gmsH40EQs+IGjAN
BgkqhkiG9w0BAQsFAAOCAQEA06wHhWn5IlIx6uA4LSMuTT7jfnpSgeTviw06WKBE
etbZvhgndY520m0tFwdrPmDaIPVFDT2dZK8QGMOUAO7iuZsnuqR7k3Rsc0kZZ3Ye
vcX/k8zfz2JPtHamnI6hmvV1dgpVk9aNh9b/lOpPZfrZUjXKUCj93e50bnx3/75D
YvsIYIDaMHvixgJcJP4C7mZSVIacrNPHffMHhePsrioM/oQlE+ko/B+xNUtNTQCf
KtJYkDGYtFV4tQ0CVTbekImMV5eDkKFX3yR5m3Jg82nWSu9N2gDZgVbD0gVUvBKp
0vyaixOLjXQRq6niNxwyHtHcyyMatrLW8jhyBTpR2Z/ieg==
-----END CERTIFICATE-----
